; Function Attrs: nounwind uwtable
define internal i64 @php_pdosqlite3_stream_read(ptr noundef captures(none) %0, ptr noundef %1, i64 noundef %2) #0 {
  %4 = getelementptr inbounds nuw i8, ptr %0, i64 8
  %5 = load ptr, ptr %4, align 8, !tbaa !105
  %6 = getelementptr inbounds nuw i8, ptr %5, i64 8
  %7 = load i64, ptr %6, align 8, !tbaa !85
  %8 = add i64 %7, %2
  %9 = getelementptr inbounds nuw i8, ptr %5, i64 16
  %10 = load i64, ptr %9, align 8, !tbaa !86
  %.not = icmp ult i64 %8, %10
  br i1 %.not, label %16, label %11

11:                                               ; preds = %3
  %12 = sub i64 %10, %7
  %13 = getelementptr inbounds nuw i8, ptr %0, i64 96
  %14 = load i16, ptr %13, align 8
  %15 = or i16 %14, 8
  store i16 %15, ptr %13, align 8
  br label %16

16:                                               ; preds = %11, %3
  %.015 = phi i64 [ %12, %11 ], [ %2, %3 ]
  %.not17 = icmp eq i64 %.015, 0
  br i1 %.not17, label %26, label %17

17:                                               ; preds = %16
  %18 = load ptr, ptr %5, align 8, !tbaa !82
  %19 = trunc i64 %.015 to i32
  %20 = load i64, ptr %6, align 8, !tbaa !85
  %21 = trunc i64 %20 to i32
  %22 = tail call i32 @sqlite3_blob_read(ptr noundef %18, ptr noundef %1, i32 noundef %19, i32 noundef %21) #11
  %.not18 = icmp eq i32 %22, 0
  br i1 %.not18, label %23, label %26

23:                                               ; preds = %17
  %24 = load i64, ptr %6, align 8, !tbaa !85
  %25 = add i64 %24, %.015
  store i64 %25, ptr %6, align 8, !tbaa !85
  br label %26

26:                                               ; preds = %16, %23, %17
  %.0 = phi i64 [ -1, %17 ], [ %.015, %23 ], [ 0, %16 ]
  ret i64 %.0
}